; Function Attrs: mustprogress nofree norecurse nosync nounwind willreturn memory(read, inaccessiblemem: none) uwtable
define ptr @Fra_ClausGetLiteral(ptr noundef readonly captures(none) %0, ptr noundef readonly captures(none) %1, i32 noundef %2) local_unnamed_addr #14 {
Aig_ManObj.exit:
  %3 = ashr i32 %2, 1
  %4 = sext i32 %3 to i64
  %5 = getelementptr inbounds i32, ptr %1, i64 %4
  %6 = load i32, ptr %5, align 4, !tbaa !38
  %7 = getelementptr inbounds nuw i8, ptr %0, i64 64
  %8 = load ptr, ptr %7, align 8, !tbaa !21
  %9 = getelementptr i8, ptr %8, i64 32
  %.val = load ptr, ptr %9, align 8, !tbaa !108, !nonnull !192, !noundef !192
  %10 = getelementptr i8, ptr %.val, i64 8
  %.val.i = load ptr, ptr %10, align 8, !tbaa !31
  %11 = sext i32 %6 to i64
  %12 = getelementptr inbounds ptr, ptr %.val.i, i64 %11
  %13 = load ptr, ptr %12, align 8, !tbaa !33
  %14 = getelementptr inbounds nuw i8, ptr %13, i64 40
  %15 = load ptr, ptr %14, align 8, !tbaa !109
  %16 = and i32 %2, 1
  %17 = ptrtoint ptr %15 to i64
  %18 = zext nneg i32 %16 to i64
  %19 = xor i64 %17, %18
  %20 = inttoptr i64 %19 to ptr
  ret ptr %20
}